target datalayout = "e-m:e-p270:32:32-p271:32:32-p272:64:64-i64:64-i128:128-f80:128-n8:16:32:64-S128"
target triple = "x86_64-pc-linux-gnu"

%struct.JSValue = type { %union.JSValueUnion, i64 }
%union.JSValueUnion = type { double }
%struct.winsize = type { i16, i16, i16, i16 }

; Function Attrs: nounwind uwtable
define internal i32 @JS_IsException(i64 %0, i64 %1) #0 {
  %3 = alloca %struct.JSValue, align 8
  %4 = getelementptr inbounds { i64, i64 }, ptr %3, i32 0, i32 0
  store i64 %0, ptr %4, align 8
  %5 = getelementptr inbounds { i64, i64 }, ptr %3, i32 0, i32 1
  store i64 %1, ptr %5, align 8
  %6 = getelementptr inbounds %struct.JSValue, ptr %3, i32 0, i32 1
  %7 = load i64, ptr %6, align 8
  %8 = trunc i64 %7 to i32
  %9 = icmp eq i32 %8, 6
  %10 = xor i1 %9, true
  %11 = xor i1 %10, true
  %12 = zext i1 %11 to i32
  %13 = sext i32 %12 to i64
  %14 = trunc i64 %13 to i32
  ret i32 %14
}

; Function Attrs: nounwind uwtable
define internal { i64, i64 } @js_os_ttyGetWinSize(ptr noundef %0, i64 %1, i64 %2, i32 noundef %3, ptr noundef %4) #0 {
  %6 = alloca %struct.JSValue, align 8
  %7 = alloca ptr, align 8
  %8 = alloca i32, align 4
  %9 = alloca %struct.JSValue, align 8
  %10 = alloca ptr, align 8
  %11 = alloca i32, align 4
  %12 = alloca %struct.JSValue, align 8
  %13 = alloca %struct.JSValue, align 8
  %14 = alloca ptr, align 8
  %15 = alloca i32, align 4
  %16 = alloca ptr, align 8
  %17 = alloca i32, align 4
  %18 = alloca %struct.winsize, align 2
  %19 = alloca %struct.JSValue, align 8
  %20 = alloca %struct.JSValue, align 8
  %21 = alloca %struct.JSValue, align 8
  %22 = alloca %struct.JSValue, align 8
  %23 = getelementptr inbounds { i64, i64 }, ptr %13, i32 0, i32 0
  store i64 %1, ptr %23, align 8
  %24 = getelementptr inbounds { i64, i64 }, ptr %13, i32 0, i32 1
  store i64 %2, ptr %24, align 8
  store ptr %0, ptr %14, align 8
  store i32 %3, ptr %15, align 4
  store ptr %4, ptr %16, align 8
  %25 = load ptr, ptr %14, align 8
  %26 = load ptr, ptr %16, align 8
  %27 = getelementptr %struct.JSValue, ptr %26, i64 0
  %28 = getelementptr inbounds { i64, i64 }, ptr %27, i32 0, i32 0
  %29 = load i64, ptr %28, align 8
  %30 = getelementptr inbounds { i64, i64 }, ptr %27, i32 0, i32 1
  %31 = load i64, ptr %30, align 8
  %32 = call i32 @JS_ToInt32(ptr noundef %25, ptr noundef %17, i64 %29, i64 %31)
  %33 = icmp ne i32 %32, 0
  br i1 %33, label %34, label %37

34:                                               ; preds = %5
  %35 = getelementptr inbounds %struct.JSValue, ptr %12, i32 0, i32 0
  store i32 0, ptr %35, align 8
  %36 = getelementptr inbounds %struct.JSValue, ptr %12, i32 0, i32 1
  store i64 6, ptr %36, align 8
  br label %111

37:                                               ; preds = %5
  %38 = load i32, ptr %17, align 4
  %39 = call i32 (i32, i64, ...) @ioctl(i32 noundef %38, i64 noundef 21523, ptr noundef %18) #12
  %40 = icmp eq i32 %39, 0
  br i1 %40, label %41, label %108

41:                                               ; preds = %37
  %42 = getelementptr inbounds %struct.winsize, ptr %18, i32 0, i32 1
  %43 = load i16, ptr %42, align 2
  %44 = zext i16 %43 to i32
  %45 = icmp sge i32 %44, 4
  br i1 %45, label %46, label %108

46:                                               ; preds = %41
  %47 = getelementptr inbounds %struct.winsize, ptr %18, i32 0, i32 0
  %48 = load i16, ptr %47, align 2
  %49 = zext i16 %48 to i32
  %50 = icmp sge i32 %49, 4
  br i1 %50, label %51, label %108

51:                                               ; preds = %46
  %52 = load ptr, ptr %14, align 8
  %53 = call { i64, i64 } @JS_NewArray(ptr noundef %52)
  %54 = getelementptr inbounds { i64, i64 }, ptr %20, i32 0, i32 0
  %55 = extractvalue { i64, i64 } %53, 0
  store i64 %55, ptr %54, align 8
  %56 = getelementptr inbounds { i64, i64 }, ptr %20, i32 0, i32 1
  %57 = extractvalue { i64, i64 } %53, 1
  store i64 %57, ptr %56, align 8
  call void @llvm.memcpy.p0.p0.i64(ptr align 8 %19, ptr align 8 %20, i64 16, i1 false)
  %58 = getelementptr inbounds { i64, i64 }, ptr %19, i32 0, i32 0
  %59 = load i64, ptr %58, align 8
  %60 = getelementptr inbounds { i64, i64 }, ptr %19, i32 0, i32 1
  %61 = load i64, ptr %60, align 8
  %62 = call i32 @JS_IsException(i64 %59, i64 %61)
  %63 = icmp ne i32 %62, 0
  br i1 %63, label %64, label %65

64:                                               ; preds = %51
  call void @llvm.memcpy.p0.p0.i64(ptr align 8 %12, ptr align 8 %19, i64 16, i1 false)
  br label %111

65:                                               ; preds = %51
  %66 = load ptr, ptr %14, align 8
  %67 = load ptr, ptr %14, align 8
  %68 = getelementptr inbounds %struct.winsize, ptr %18, i32 0, i32 1
  %69 = load i16, ptr %68, align 2
  %70 = zext i16 %69 to i32
  store ptr %67, ptr %7, align 8
  store i32 %70, ptr %8, align 4
  %71 = load i32, ptr %8, align 4
  store i32 %71, ptr %6, align 8
  %72 = getelementptr inbounds %struct.JSValue, ptr %6, i32 0, i32 1
  store i64 0, ptr %72, align 8
  %73 = load { i64, i64 }, ptr %6, align 8
  %74 = getelementptr inbounds { i64, i64 }, ptr %21, i32 0, i32 0
  %75 = extractvalue { i64, i64 } %73, 0
  store i64 %75, ptr %74, align 8
  %76 = getelementptr inbounds { i64, i64 }, ptr %21, i32 0, i32 1
  %77 = extractvalue { i64, i64 } %73, 1
  store i64 %77, ptr %76, align 8
  %78 = getelementptr inbounds { i64, i64 }, ptr %19, i32 0, i32 0
  %79 = load i64, ptr %78, align 8
  %80 = getelementptr inbounds { i64, i64 }, ptr %19, i32 0, i32 1
  %81 = load i64, ptr %80, align 8
  %82 = getelementptr inbounds { i64, i64 }, ptr %21, i32 0, i32 0
  %83 = load i64, ptr %82, align 8
  %84 = getelementptr inbounds { i64, i64 }, ptr %21, i32 0, i32 1
  %85 = load i64, ptr %84, align 8
  %86 = call i32 @JS_DefinePropertyValueUint32(ptr noundef %66, i64 %79, i64 %81, i32 noundef 0, i64 %83, i64 %85, i32 noundef 7)
  %87 = load ptr, ptr %14, align 8
  %88 = load ptr, ptr %14, align 8
  %89 = getelementptr inbounds %struct.winsize, ptr %18, i32 0, i32 0
  %90 = load i16, ptr %89, align 2
  %91 = zext i16 %90 to i32
  store ptr %88, ptr %10, align 8
  store i32 %91, ptr %11, align 4
  %92 = load i32, ptr %11, align 4
  store i32 %92, ptr %9, align 8
  %93 = getelementptr inbounds %struct.JSValue, ptr %9, i32 0, i32 1
  store i64 0, ptr %93, align 8
  %94 = load { i64, i64 }, ptr %9, align 8
  %95 = getelementptr inbounds { i64, i64 }, ptr %22, i32 0, i32 0
  %96 = extractvalue { i64, i64 } %94, 0
  store i64 %96, ptr %95, align 8
  %97 = getelementptr inbounds { i64, i64 }, ptr %22, i32 0, i32 1
  %98 = extractvalue { i64, i64 } %94, 1
  store i64 %98, ptr %97, align 8
  %99 = getelementptr inbounds { i64, i64 }, ptr %19, i32 0, i32 0
  %100 = load i64, ptr %99, align 8
  %101 = getelementptr inbounds { i64, i64 }, ptr %19, i32 0, i32 1
  %102 = load i64, ptr %101, align 8
  %103 = getelementptr inbounds { i64, i64 }, ptr %22, i32 0, i32 0
  %104 = load i64, ptr %103, align 8
  %105 = getelementptr inbounds { i64, i64 }, ptr %22, i32 0, i32 1
  %106 = load i64, ptr %105, align 8
  %107 = call i32 @JS_DefinePropertyValueUint32(ptr noundef %87, i64 %100, i64 %102, i32 noundef 1, i64 %104, i64 %106, i32 noundef 7)
  call void @llvm.memcpy.p0.p0.i64(ptr align 8 %12, ptr align 8 %19, i64 16, i1 false)
  br label %111

108:                                              ; preds = %46, %41, %37
  %109 = getelementptr inbounds %struct.JSValue, ptr %12, i32 0, i32 0
  store i32 0, ptr %109, align 8
  %110 = getelementptr inbounds %struct.JSValue, ptr %12, i32 0, i32 1
  store i64 2, ptr %110, align 8
  br label %111

111:                                              ; preds = %108, %65, %64, %34
  %112 = load { i64, i64 }, ptr %12, align 8
  ret { i64, i64 } %112
}