; Function Attrs: nounwind uwtable
define internal { i64, i64 } @js_os_ttyGetWinSize(ptr noundef %0, i64 %1, i64 %2, i32 %3, ptr nocapture noundef readonly %4) #0 {
  %6 = alloca i32, align 4
  %7 = alloca %struct.winsize, align 2
  %8 = load i64, ptr %4, align 8
  %9 = getelementptr inbounds i8, ptr %4, i64 8
  %10 = load i64, ptr %9, align 8
  %11 = call i32 @JS_ToInt32(ptr noundef %0, ptr noundef nonnull %6, i64 %8, i64 %10) #29
  %.not = icmp eq i32 %11, 0
  br i1 %.not, label %12, label %32

12:                                               ; preds = %5
  %13 = load i32, ptr %6, align 4
  %14 = call i32 (i32, i64, ...) @ioctl(i32 noundef %13, i64 noundef 21523, ptr noundef nonnull %7) #29
  %15 = icmp eq i32 %14, 0
  %16 = getelementptr inbounds i8, ptr %7, i64 2
  %17 = load i16, ptr %16, align 2
  %18 = icmp ugt i16 %17, 3
  %or.cond = select i1 %15, i1 %18, i1 false
  %19 = load i16, ptr %7, align 2
  %20 = icmp ugt i16 %19, 3
  %or.cond7 = select i1 %or.cond, i1 %20, i1 false
  br i1 %or.cond7, label %21, label %32

21:                                               ; preds = %12
  %22 = call { i64, i64 } @JS_NewArray(ptr noundef %0) #29
  %23 = extractvalue { i64, i64 } %22, 0
  %24 = extractvalue { i64, i64 } %22, 1
  %25 = and i64 %24, 4294967295
  %.not44 = icmp eq i64 %25, 6
  br i1 %.not44, label %26, label %27

26:                                               ; preds = %21
  %.sroa.5.0.extract.shift = and i64 %23, -4294967296
  br label %32

27:                                               ; preds = %21
  %28 = load i16, ptr %16, align 2
  %.sroa.041.0.insert.ext = zext i16 %28 to i64
  %29 = call i32 @JS_DefinePropertyValueUint32(ptr noundef %0, i64 %23, i64 %24, i32 noundef 0, i64 %.sroa.041.0.insert.ext, i64 0, i32 noundef 7) #29
  %30 = load i16, ptr %7, align 2
  %.sroa.036.0.insert.ext = zext i16 %30 to i64
  %31 = call i32 @JS_DefinePropertyValueUint32(ptr noundef %0, i64 %23, i64 %24, i32 noundef 1, i64 %.sroa.036.0.insert.ext, i64 0, i32 noundef 7) #29
  %.sroa.5.0.extract.shift29 = and i64 %23, -4294967296
  br label %32

32:                                               ; preds = %12, %5, %27, %26
  %.sroa.027.0 = phi i64 [ %23, %26 ], [ %23, %27 ], [ 0, %5 ], [ 0, %12 ]
  %.sroa.5.sroa.0.0 = phi i64 [ %.sroa.5.0.extract.shift, %26 ], [ %.sroa.5.0.extract.shift29, %27 ], [ 0, %5 ], [ 0, %12 ]
  %.sroa.5.sroa.3.0 = phi i64 [ %24, %26 ], [ %24, %27 ], [ 6, %5 ], [ 2, %12 ]
  %.sroa.027.0.insert.ext = and i64 %.sroa.027.0, 4294967295
  %.sroa.027.0.insert.insert = or disjoint i64 %.sroa.5.sroa.0.0, %.sroa.027.0.insert.ext
  %.fca.0.insert = insertvalue { i64, i64 } poison, i64 %.sroa.027.0.insert.insert, 0
  %.fca.1.insert = insertvalue { i64, i64 } %.fca.0.insert, i64 %.sroa.5.sroa.3.0, 1
  ret { i64, i64 } %.fca.1.insert
}